target datalayout = "e-m:e-p270:32:32-p271:32:32-p272:64:64-i64:64-i128:128-f80:128-n8:16:32:64-S128"
target triple = "x86_64-pc-linux-gnu"

%struct.client_response = type { ptr }

@plugin_type = external constant [0 x i8], align 1
@.str.53 = private unnamed_addr constant [4 x i8] c"key\00", align 1
@.str.54 = private unnamed_addr constant [6 x i8] c"value\00", align 1
@.str.72 = private unnamed_addr constant [46 x i8] c"%s: %s: mpi/pmi2: in _handle_info_putnodeattr\00", align 1
@__func__._handle_info_putnodeattr = private unnamed_addr constant [25 x i8] c"_handle_info_putnodeattr\00", align 1
@.str.73 = private unnamed_addr constant [37 x i8] c"cmd=info-putnodeattr-response;rc=%d;\00", align 1
@.str.74 = private unnamed_addr constant [47 x i8] c"%s: %s: mpi/pmi2: out _handle_info_putnodeattr\00", align 1

; Function Attrs: nounwind uwtable
define internal i32 @_handle_info_putnodeattr(i32 noundef %0, i32 noundef %1, ptr noundef %2) #0 {
  %4 = alloca i32, align 4
  %5 = alloca i32, align 4
  %6 = alloca ptr, align 8
  %7 = alloca ptr, align 8
  %8 = alloca ptr, align 8
  %9 = alloca ptr, align 8
  %10 = alloca i32, align 4
  store i32 %0, ptr %4, align 4
  store i32 %1, ptr %5, align 4
  store ptr %2, ptr %6, align 8
  call void @llvm.lifetime.start.p0(i64 8, ptr %7) #6
  call void @llvm.lifetime.start.p0(i64 8, ptr %8) #6
  call void @llvm.lifetime.start.p0(i64 8, ptr %9) #6
  call void @llvm.lifetime.start.p0(i64 4, ptr %10) #6
  store i32 0, ptr %10, align 4
  br label %11

11:                                               ; preds = %3
  br label %12

12:                                               ; preds = %11
  %13 = call i32 @slurm_get_log_level()
  %14 = icmp sge i32 %13, 7
  br i1 %14, label %15, label %16

15:                                               ; preds = %12
  call void (i32, ptr, ...) @slurm_log_var(i32 noundef 7, ptr noundef @.str.72, ptr noundef @plugin_type, ptr noundef @__func__._handle_info_putnodeattr)
  br label %16

16:                                               ; preds = %15, %12
  br label %17

17:                                               ; preds = %16
  br label %18

18:                                               ; preds = %17
  br label %19

19:                                               ; preds = %18
  br label %20

20:                                               ; preds = %19
  %21 = load ptr, ptr %6, align 8
  %22 = call i32 @client_req_parse_body(ptr noundef %21)
  %23 = load ptr, ptr %6, align 8
  %24 = call zeroext i1 @client_req_get_str(ptr noundef %23, ptr noundef @.str.53, ptr noundef %7)
  %25 = load ptr, ptr %6, align 8
  %26 = call zeroext i1 @client_req_get_str(ptr noundef %25, ptr noundef @.str.54, ptr noundef %8)
  %27 = load ptr, ptr %7, align 8
  %28 = load ptr, ptr %8, align 8
  %29 = call i32 @node_attr_put(ptr noundef %27, ptr noundef %28)
  store i32 %29, ptr %10, align 4
  call void @slurm_xfree(ptr noundef %7)
  call void @slurm_xfree(ptr noundef %8)
  %30 = call ptr @client_resp_new()
  store ptr %30, ptr %9, align 8
  br label %31

31:                                               ; preds = %20
  %32 = load ptr, ptr %9, align 8
  %33 = getelementptr inbounds nuw %struct.client_response, ptr %32, i32 0, i32 0
  %34 = load i32, ptr %10, align 4
  call void (ptr, ptr, ...) @slurm_xstrfmtcat(ptr noundef %33, ptr noundef @.str.73, i32 noundef %34)
  br label %35

35:                                               ; preds = %31
  br label %36

36:                                               ; preds = %35
  %37 = load ptr, ptr %9, align 8
  %38 = load i32, ptr %4, align 4
  %39 = call i32 @client_resp_send(ptr noundef %37, i32 noundef %38)
  store i32 %39, ptr %10, align 4
  %40 = load ptr, ptr %9, align 8
  call void @client_resp_free(ptr noundef %40)
  br label %41

41:                                               ; preds = %36
  br label %42

42:                                               ; preds = %41
  %43 = call i32 @slurm_get_log_level()
  %44 = icmp sge i32 %43, 7
  br i1 %44, label %45, label %46

45:                                               ; preds = %42
  call void (i32, ptr, ...) @slurm_log_var(i32 noundef 7, ptr noundef @.str.74, ptr noundef @plugin_type, ptr noundef @__func__._handle_info_putnodeattr)
  br label %46

46:                                               ; preds = %45, %42
  br label %47

47:                                               ; preds = %46
  br label %48

48:                                               ; preds = %47
  br label %49

49:                                               ; preds = %48
  br label %50

50:                                               ; preds = %49
  %51 = load i32, ptr %10, align 4
  call void @llvm.lifetime.end.p0(i64 4, ptr %10) #6
  call void @llvm.lifetime.end.p0(i64 8, ptr %9) #6
  call void @llvm.lifetime.end.p0(i64 8, ptr %8) #6
  call void @llvm.lifetime.end.p0(i64 8, ptr %7) #6
  ret i32 %51
}